; Function Attrs: nounwind uwtable
define hidden void @zif_get_include_path(ptr nocapture noundef readonly %0, ptr nocapture noundef writeonly %1) #0 {
  %3 = getelementptr inbounds i8, ptr %0, i64 44
  %4 = load i32, ptr %3, align 4
  %.not = icmp eq i32 %4, 0
  br i1 %.not, label %6, label %5

5:                                                ; preds = %2
  tail call void @zend_wrong_parameters_none_error() #18
  br label %22

6:                                                ; preds = %2
  %7 = tail call ptr @zend_ini_string(ptr noundef nonnull @.str.40, i64 noundef 12, i32 noundef 0) #18
  %8 = icmp eq ptr %7, null
  br i1 %8, label %9, label %11

9:                                                ; preds = %6
  %10 = getelementptr inbounds i8, ptr %1, i64 8
  store i32 2, ptr %10, align 8
  br label %22

11:                                               ; preds = %6
  %12 = tail call i64 @strlen(ptr noundef nonnull dereferenceable(1) %7) #19
  %13 = and i64 %12, -8
  %14 = add i64 %13, 32
  %15 = tail call noalias ptr @_emalloc(i64 noundef %14) #20
  store i32 1, ptr %15, align 4
  %16 = getelementptr inbounds i8, ptr %15, i64 4
  store i32 22, ptr %16, align 4
  %17 = getelementptr inbounds i8, ptr %15, i64 8
  store i64 0, ptr %17, align 8
  %18 = getelementptr inbounds i8, ptr %15, i64 16
  store i64 %12, ptr %18, align 8
  %19 = getelementptr inbounds i8, ptr %15, i64 24
  tail call void @llvm.memcpy.p0.p0.i64(ptr nonnull align 8 %19, ptr nonnull align 1 %7, i64 %12, i1 false)
  %20 = getelementptr inbounds [1 x i8], ptr %19, i64 0, i64 %12
  store i8 0, ptr %20, align 1
  store ptr %15, ptr %1, align 8
  %21 = getelementptr inbounds i8, ptr %1, i64 8
  store i32 262, ptr %21, align 8
  br label %22

22:                                               ; preds = %11, %9, %5
  ret void
}